Certificate:
    Data:
        Version: 1 (0x0)
        Serial Number:
            ef:ba:bf:4b:0d:49:3c:a8:2d:64:a8:13:b5:d7:08:fc
        Signature Algorithm: sha256WithRSAEncryption
        Issuer: C=BD, ST=Dhaka, L=Wari, O=EWU, CN=RootCA
        Validity
            Not Before: Aug 23 18:01:13 2022 GMT
            Not After : Aug 23 18:01:13 2023 GMT
        Subject: C=BD, ST=Dhaka, O=EWU, CN=acme
        Subject Public Key Info:
            Public Key Algorithm: rsaEncryption
                RSA Public-Key: (2048 bit)
                Modulus:
                    00:aa:0f:62:a5:90:e0:44:ad:8b:82:c5:97:b6:d9:
                    3e:01:3c:69:01:cd:23:28:42:e5:c0:03:dd:81:9d:
                    36:55:3b:59:4f:1e:6d:0f:4c:d8:2d:d1:82:20:d3:
                    8c:f7:82:04:79:9e:69:58:2e:44:86:ab:eb:cd:4c:
                    a8:a5:74:99:7b:e7:a4:77:5e:e3:ba:a2:5e:5e:04:
                    f2:71:33:06:60:40:3c:9b:65:5d:9c:da:1c:dd:c7:
                    6c:1f:17:a0:1b:48:c5:c3:12:75:6a:b0:1f:2c:13:
                    b2:cb:d3:47:2c:50:1c:3a:bc:30:d3:e1:62:ad:c1:
                    bd:c9:8c:95:ca:4f:8a:e9:ee:af:69:93:df:0b:c1:
                    9c:90:74:3a:92:c2:47:6f:63:b4:19:c1:ee:6f:df:
                    83:fc:38:e7:5c:f6:a8:15:6b:a1:b4:59:d3:fe:0c:
                    f6:55:56:c7:6f:f1:48:f7:b2:26:e6:8a:b6:36:76:
                    02:53:17:33:b8:c5:a6:25:08:7f:67:11:eb:f9:03:
                    8a:0a:d9:c8:d8:a2:2c:39:6a:d4:28:92:2c:f3:df:
                    fb:8c:88:fa:e9:58:b2:11:ef:c8:6d:ed:f1:b3:bf:
                    29:18:7a:e4:d8:58:dc:53:69:67:76:2a:45:f3:e5:
                    de:d3:1f:a3:5e:33:36:b7:71:52:19:3a:a7:3b:f0:
                    33:a9
                Exponent: 65537 (0x10001)
    Signature Algorithm: sha256WithRSAEncryption
         4f:88:fc:eb:09:d3:54:c8:ce:52:71:0f:27:51:09:c2:c3:08:
         ed:5f:8c:a5:95:48:db:6c:91:0a:fd:9d:cd:80:9b:b8:6d:fc:
         12:58:2a:17:a3:cd:04:f4:25:6e:0b:5b:25:a7:c9:7f:74:ed:
         16:53:08:d5:60:93:b0:0e:dd:83:36:d6:95:52:b2:bb:61:d0:
         e7:b5:72:c4:0c:cc:3a:69:4e:ab:87:24:72:61:cf:1a:07:ac:
         1c:c1:9a:3d:21:14:44:dd:c9:7b:aa:61:a2:a1:88:f3:e5:67:
         bb:ff:1f:49:9f:1e:14:32:b6:a6:10:d6:f4:3a:f0:99:b4:26:
         08:86:a5:6c:cf:3b:85:80:30:b1:8c:2a:10:ed:a0:1b:0f:23:
         a0:db:4c:c0:d7:26:65:b2:29:ec:64:67:83:d9:8d:5e:c9:91:
         9c:55:01:fc:e7:6d:52:4a:ab:73:9b:77:5f:23:03:9a:99:53:
         1e:44:94:c7:e3:18:72:91:58:f6:f5:a7:d0:22:f5:6e:3c:36:
         5b:83:45:9f:c5:2b:e9:41:f5:1b:cd:12:56:ca:a1:a7:23:1b:
         56:17:38:99:f3:3f:93:a1:21:f7:a2:30:97:cb:b6:91:01:8e:
         d8:fd:29:9c:65:e6:ba:cb:31:55:6c:42:19:fc:5d:a6:a4:dd:
         fb:bd:f5:17:23:31:bf:fd:2f:3e:c3:f8:a5:44:df:25:3a:7d:
         b7:82:c0:f6:41:4c:1e:ae:a2:9f:9c:85:61:b5:4a:b9:cc:f6:
         21:99:a1:85:5f:0f:c3:78:f1:98:e8:9b:5b:88:d3:dc:29:79:
         b4:62:78:1d:b8:0e:25:2d:c9:de:cf:ab:52:81:57:f5:31:c4:
         48:7a:e1:fd:83:dd:7d:e7:cc:39:1f:ae:b8:c1:77:79:03:23:
         3c:1b:dd:b5:c4:59:c2:2e:cf:1e:b7:a3:f0:16:44:08:99:f7:
         42:91:44:79:02:2c:78:9b:a5:9a:ab:8e:9f:73:f0:87:c8:b8:
         7c:14:fd:22:df:de:70:f6:43:71:48:1e:f8:9f:70:4c:56:c2:
         6d:91:48:c2:c2:39:20:d8:78:43:2e:db:15:46:a7:fd:bf:88:
         45:2c:ba:47:a3:a4:5e:c9:9a:d3:6f:53:95:d6:95:0e:e2:22:
         bf:9d:56:67:a1:64:e0:26:d2:2a:2f:6e:82:ab:9d:8a:1c:fa:
         c0:8a:67:9a:a4:93:e6:d6:ac:c0:2e:4e:ff:9c:c3:45:b6:90:
         4a:4b:db:9c:0c:09:35:02:84:63:3c:72:e0:43:f6:bf:5f:76:
         09:ab:b3:fc:e0:02:9e:e3:c3:a8:b6:60:2c:df:78:f3:ae:5c:
         c6:5d:9a:49:69:41:28:4b
-----BEGIN CERTIFICATE-----
MIIECTCCAfECEQDvur9LDUk8qC1kqBO11wj8MA0GCSqGSIb3DQEBCwUAMEsxCzAJ
BgNVBAYTAkJEMQ4wDAYDVQQIDAVEaGFrYTENMAsGA1UEBwwEV2FyaTEMMAoGA1UE
CgwDRVdVMQ8wDQYDVQQDDAZSb290Q0EwHhcNMjIwODIzMTgwMTEzWhcNMjMwODIz
MTgwMTEzWjA6MQswCQYDVQQGEwJCRDEOMAwGA1UECAwFRGhha2ExDDAKBgNVBAoM
A0VXVTENMAsGA1UEAwwEYWNtZTCCASIwDQYJKoZIhvcNAQEBBQADggEPADCCAQoC
ggEBAKoPYqWQ4ESti4LFl7bZPgE8aQHNIyhC5cAD3YGdNlU7WU8ebQ9M2C3RgiDT
jPeCBHmeaVguRIar681MqKV0mXvnpHde47qiXl4E8nEzBmBAPJtlXZzaHN3HbB8X
oBtIxcMSdWqwHywTssvTRyxQHDq8MNPhYq3BvcmMlcpPiunur2mT3wvBnJB0OpLC
R29jtBnB7m/fg/w451z2qBVrobRZ0/4M9lVWx2/xSPeyJuaKtjZ2AlMXM7jFpiUI
f2cR6/kDigrZyNiiLDlq1CiSLPPf+4yI+ulYshHvyG3t8bO/KRh65NhY3FNpZ3Yq
RfPl3tMfo14zNrdxUhk6pzvwM6kCAwEAATANBgkqhkiG9w0BAQsFAAOCAgEAT4j8
6wnTVMjOUnEPJ1EJwsMI7V+MpZVI22yRCv2dzYCbuG38ElgqF6PNBPQlbgtbJafJ
f3TtFlMI1WCTsA7dgzbWlVKyu2HQ57VyxAzMOmlOq4ckcmHPGgesHMGaPSEURN3J
e6phoqGI8+Vnu/8fSZ8eFDK2phDW9DrwmbQmCIalbM87hYAwsYwqEO2gGw8joNtM
wNcmZbIp7GRng9mNXsmRnFUB/OdtUkqrc5t3XyMDmplTHkSUx+MYcpFY9vWn0CL1
bjw2W4NFn8Ur6UH1G80SVsqhpyMbVhc4mfM/k6Eh96Iwl8u2kQGO2P0pnGXmussx
VWxCGfxdpqTd+731FyMxv/0vPsP4pUTfJTp9t4LA9kFMHq6in5yFYbVKucz2IZmh
hV8Pw3jxmOibW4jT3Cl5tGJ4HbgOJS3J3s+rUoFX9THESHrh/YPdfefMOR+uuMF3
eQMjPBvdtcRZwi7PHrej8BZECJn3QpFEeQIseJulmquOn3Pwh8i4fBT9It/ecPZD
cUge+J9wTFbCbZFIwsI5INh4Qy7bFUan/b+IRSy6R6OkXsma029TldaVDuIiv51W
Z6Fk4CbSKi9ugqudihz6wIpnmqST5taswC5O/5zDRbaQSkvbnAwJNQKEYzxy4EP2
v192Cauz/OACnuPDqLZgLN94865cxl2aSWlBKEs=
-----END CERTIFICATE-----
