Certificate Request:
    Data:
        Version: 1 (0x0)
        Subject: C = BD, ST = Dhaka, L = Wari, O = EWU, CN = RootEnd
        Subject Public Key Info:
            Public Key Algorithm: rsaEncryption
                RSA Public-Key: (1024 bit)
                Modulus:
                    00:c6:79:2f:fb:42:21:32:07:7e:d1:ce:e3:d3:80:
                    3c:e0:ee:82:af:52:8c:65:8d:c8:38:59:11:08:0e:
                    cb:07:71:70:39:81:d8:f7:a0:71:95:98:d3:30:53:
                    76:21:3c:3e:c0:fb:46:a7:f3:ed:f8:f5:d4:c8:50:
                    8d:55:e3:6a:b3:a0:c5:ce:4c:5b:35:91:af:b1:df:
                    45:55:77:fe:a4:3d:13:30:7f:80:8b:ed:02:ee:15:
                    d3:46:7e:57:ad:f1:42:ce:16:46:1b:b4:72:fe:cc:
                    06:dd:0a:80:1f:bc:56:41:e2:d4:4d:7b:e1:96:3e:
                    e4:a3:62:0c:a3:f5:ef:13:c7
                Exponent: 65537 (0x10001)
        Attributes:
            a0:00
    Signature Algorithm: sha256WithRSAEncryption
         c4:62:23:b2:d0:cc:c2:d1:a8:9e:f4:27:a5:03:c2:12:8c:f4:
         3e:e2:e0:a6:58:d9:a8:79:be:3d:49:46:e9:32:e2:88:25:be:
         bf:e7:2f:b7:53:1a:1f:e8:8a:b8:9d:c4:99:6c:c2:41:ff:b6:
         79:42:fb:3b:43:d4:20:7e:96:90:53:b4:6e:14:73:ff:e1:c6:
         6c:96:05:9a:83:05:74:7e:e5:64:3b:35:c9:5c:1e:22:ea:49:
         ae:ba:e4:bd:a1:e2:f1:66:d9:b4:e0:53:1d:f2:ef:1f:41:a6:
         95:e4:db:82:8e:cd:31:99:cf:1c:f3:47:0d:ec:fd:01:aa:0a:
         0f:89
-----BEGIN CERTIFICATE REQUEST-----
MIIBizCB9QIBADBMMQswCQYDVQQGEwJCRDEOMAwGA1UECAwFRGhha2ExDTALBgNV
BAcMBFdhcmkxDDAKBgNVBAoMA0VXVTEQMA4GA1UEAwwHUm9vdEVuZDCBnzANBgkq
hkiG9w0BAQEFAAOBjQAwgYkCgYEAxnkv+0IhMgd+0c7j04A84O6Cr1KMZY3IOFkR
CA7LB3FwOYHY96BxlZjTMFN2ITw+wPtGp/Pt+PXUyFCNVeNqs6DFzkxbNZGvsd9F
VXf+pD0TMH+Ai+0C7hXTRn5XrfFCzhZGG7Ry/swG3QqAH7xWQeLUTXvhlj7ko2IM
o/XvE8cCAwEAAaAAMA0GCSqGSIb3DQEBCwUAA4GBAMRiI7LQzMLRqJ70J6UDwhKM
9D7i4KZY2ah5vj1JRuky4oglvr/nL7dTGh/oiridxJlswkH/tnlC+ztD1CB+lpBT
tG4Uc//hxmyWBZqDBXR+5WQ7NclcHiLqSa665L2h4vFm2bTgUx3y7x9BppXk24KO
zTGZzxzzRw3s/QGqCg+J
-----END CERTIFICATE REQUEST-----
